target datalayout = "e-m:e-p270:32:32-p271:32:32-p272:64:64-i64:64-i128:128-f80:128-n8:16:32:64-S128"
target triple = "x86_64-pc-linux-gnu"

%struct._object = type { %union.anon, ptr }
%union.anon = type { i64 }
%struct.HMACobject = type { %struct._object, ptr, i8, %struct.PyMutex }
%struct.PyMutex = type { i8 }
%struct.Py_buffer = type { ptr, ptr, i64, i64, i32, i32, ptr, ptr, ptr, ptr, ptr }
%struct.PyVarObject = type { %struct._object, i64 }
%struct._hashlibstate = type { ptr, ptr, ptr, ptr, ptr, ptr }

@_Py_NoneStruct = external global %struct._object, align 8
@PyExc_TypeError = external global ptr, align 8
@PyExc_ValueError = external global ptr, align 8
@PyExc_OverflowError = external global ptr, align 8
@.str.116 = private unnamed_addr constant [17 x i8] c"key is too long.\00", align 1
@.str.120 = private unnamed_addr constant [40 x i8] c"Missing required parameter 'digestmod'.\00", align 1

; Function Attrs: inlinehint nounwind uwtable
define internal ptr @get_hashlib_state(ptr noundef %0) #4 {
  %2 = alloca ptr, align 8
  %3 = alloca ptr, align 8
  store ptr %0, ptr %2, align 8, !tbaa !14
  call void @llvm.lifetime.start.p0(i64 8, ptr %3) #9
  %4 = load ptr, ptr %2, align 8, !tbaa !14
  %5 = call ptr @PyModule_GetState(ptr noundef %4)
  store ptr %5, ptr %3, align 8, !tbaa !3
  %6 = load ptr, ptr %3, align 8, !tbaa !3
  call void @llvm.lifetime.end.p0(i64 8, ptr %3) #9
  ret ptr %6
}

; Function Attrs: inlinehint nounwind uwtable
define internal i64 @Py_SIZE(ptr noundef %0) #4 {
  %2 = alloca ptr, align 8
  store ptr %0, ptr %2, align 8, !tbaa !14
  %3 = load ptr, ptr %2, align 8, !tbaa !14
  %4 = getelementptr inbounds nuw %struct.PyVarObject, ptr %3, i32 0, i32 1
  %5 = load i64, ptr %4, align 8, !tbaa !68
  ret i64 %5
}

; Function Attrs: nounwind uwtable
define internal ptr @_hashlib_hmac_new_impl(ptr noundef %0, ptr noundef %1, ptr noundef %2, ptr noundef %3) #0 {
  %5 = alloca ptr, align 8
  %6 = alloca ptr, align 8
  %7 = alloca ptr, align 8
  %8 = alloca ptr, align 8
  %9 = alloca ptr, align 8
  %10 = alloca ptr, align 8
  %11 = alloca ptr, align 8
  %12 = alloca ptr, align 8
  %13 = alloca ptr, align 8
  %14 = alloca i32, align 4
  %15 = alloca i32, align 4
  %16 = alloca %struct.PyMutex, align 1
  store ptr %0, ptr %6, align 8, !tbaa !14
  store ptr %1, ptr %7, align 8, !tbaa !3
  store ptr %2, ptr %8, align 8, !tbaa !14
  store ptr %3, ptr %9, align 8, !tbaa !14
  call void @llvm.lifetime.start.p0(i64 8, ptr %10) #9
  %17 = load ptr, ptr %6, align 8, !tbaa !14
  %18 = call ptr @get_hashlib_state(ptr noundef %17)
  %19 = getelementptr inbounds nuw %struct._hashlibstate, ptr %18, i32 0, i32 1
  %20 = load ptr, ptr %19, align 8, !tbaa !60
  store ptr %20, ptr %10, align 8, !tbaa !16
  call void @llvm.lifetime.start.p0(i64 8, ptr %11) #9
  call void @llvm.lifetime.start.p0(i64 8, ptr %12) #9
  store ptr null, ptr %12, align 8, !tbaa !54
  call void @llvm.lifetime.start.p0(i64 8, ptr %13) #9
  store ptr null, ptr %13, align 8, !tbaa !3
  call void @llvm.lifetime.start.p0(i64 4, ptr %14) #9
  %21 = load ptr, ptr %7, align 8, !tbaa !3
  %22 = getelementptr inbounds nuw %struct.Py_buffer, ptr %21, i32 0, i32 2
  %23 = load i64, ptr %22, align 8, !tbaa !40
  %24 = icmp sgt i64 %23, 2147483647
  br i1 %24, label %25, label %27

25:                                               ; preds = %4
  %26 = load ptr, ptr @PyExc_OverflowError, align 8, !tbaa !14
  call void @PyErr_SetString(ptr noundef %26, ptr noundef @.str.116)
  store ptr null, ptr %5, align 8
  store i32 1, ptr %15, align 4
  br label %106

27:                                               ; preds = %4
  %28 = load ptr, ptr %9, align 8, !tbaa !14
  %29 = icmp eq ptr %28, null
  br i1 %29, label %30, label %32

30:                                               ; preds = %27
  %31 = load ptr, ptr @PyExc_TypeError, align 8, !tbaa !14
  call void @PyErr_SetString(ptr noundef %31, ptr noundef @.str.120)
  store ptr null, ptr %5, align 8
  store i32 1, ptr %15, align 4
  br label %106

32:                                               ; preds = %27
  %33 = load ptr, ptr %6, align 8, !tbaa !14
  %34 = load ptr, ptr %9, align 8, !tbaa !14
  %35 = call ptr @py_digest_by_digestmod(ptr noundef %33, ptr noundef %34, i32 noundef 2)
  store ptr %35, ptr %11, align 8, !tbaa !17
  %36 = load ptr, ptr %11, align 8, !tbaa !17
  %37 = icmp eq ptr %36, null
  br i1 %37, label %38, label %39

38:                                               ; preds = %32
  store ptr null, ptr %5, align 8
  store i32 1, ptr %15, align 4
  br label %106

39:                                               ; preds = %32
  %40 = call ptr @HMAC_CTX_new()
  store ptr %40, ptr %12, align 8, !tbaa !54
  %41 = load ptr, ptr %12, align 8, !tbaa !54
  %42 = icmp eq ptr %41, null
  br i1 %42, label %43, label %46

43:                                               ; preds = %39
  %44 = load ptr, ptr @PyExc_ValueError, align 8, !tbaa !14
  %45 = call ptr (ptr, ptr, ...) @_setException(ptr noundef %44, ptr noundef null)
  br label %95

46:                                               ; preds = %39
  %47 = load ptr, ptr %12, align 8, !tbaa !54
  %48 = load ptr, ptr %7, align 8, !tbaa !3
  %49 = getelementptr inbounds nuw %struct.Py_buffer, ptr %48, i32 0, i32 0
  %50 = load ptr, ptr %49, align 8, !tbaa !43
  %51 = load ptr, ptr %7, align 8, !tbaa !3
  %52 = getelementptr inbounds nuw %struct.Py_buffer, ptr %51, i32 0, i32 2
  %53 = load i64, ptr %52, align 8, !tbaa !40
  %54 = trunc i64 %53 to i32
  %55 = load ptr, ptr %11, align 8, !tbaa !17
  %56 = call i32 @HMAC_Init_ex(ptr noundef %47, ptr noundef %50, i32 noundef %54, ptr noundef %55, ptr noundef null)
  store i32 %56, ptr %14, align 4, !tbaa !19
  %57 = load ptr, ptr %11, align 8, !tbaa !17
  call void @EVP_MD_free(ptr noundef %57)
  %58 = load i32, ptr %14, align 4, !tbaa !19
  %59 = icmp eq i32 %58, 0
  br i1 %59, label %60, label %63

60:                                               ; preds = %46
  %61 = load ptr, ptr @PyExc_ValueError, align 8, !tbaa !14
  %62 = call ptr (ptr, ptr, ...) @_setException(ptr noundef %61, ptr noundef null)
  br label %95

63:                                               ; preds = %46
  %64 = load ptr, ptr %10, align 8, !tbaa !16
  %65 = call ptr @_PyObject_New(ptr noundef %64)
  store ptr %65, ptr %13, align 8, !tbaa !3
  %66 = load ptr, ptr %13, align 8, !tbaa !3
  %67 = icmp eq ptr %66, null
  br i1 %67, label %68, label %69

68:                                               ; preds = %63
  br label %95

69:                                               ; preds = %63
  %70 = load ptr, ptr %12, align 8, !tbaa !54
  %71 = load ptr, ptr %13, align 8, !tbaa !3
  %72 = getelementptr inbounds nuw %struct.HMACobject, ptr %71, i32 0, i32 1
  store ptr %70, ptr %72, align 8, !tbaa !7
  br label %73

73:                                               ; preds = %69
  %74 = load ptr, ptr %13, align 8, !tbaa !3
  %75 = getelementptr inbounds nuw %struct.HMACobject, ptr %74, i32 0, i32 3
  %76 = getelementptr inbounds nuw %struct.PyMutex, ptr %16, i32 0, i32 0
  store i8 0, ptr %76, align 1, !tbaa !55
  call void @llvm.memcpy.p0.p0.i64(ptr align 1 %75, ptr align 1 %16, i64 1, i1 false), !tbaa.struct !56
  %77 = load ptr, ptr %13, align 8, !tbaa !3
  %78 = getelementptr inbounds nuw %struct.HMACobject, ptr %77, i32 0, i32 2
  store i8 0, ptr %78, align 8, !tbaa !37
  br label %79

79:                                               ; preds = %73
  br label %80

80:                                               ; preds = %79
  %81 = load ptr, ptr %8, align 8, !tbaa !14
  %82 = icmp ne ptr %81, null
  br i1 %82, label %83, label %93

83:                                               ; preds = %80
  %84 = load ptr, ptr %8, align 8, !tbaa !14
  %85 = icmp ne ptr %84, @_Py_NoneStruct
  br i1 %85, label %86, label %93

86:                                               ; preds = %83
  %87 = load ptr, ptr %13, align 8, !tbaa !3
  %88 = load ptr, ptr %8, align 8, !tbaa !14
  %89 = call i32 @_hmac_update(ptr noundef %87, ptr noundef %88)
  %90 = icmp ne i32 %89, 0
  br i1 %90, label %92, label %91

91:                                               ; preds = %86
  br label %95

92:                                               ; preds = %86
  br label %93

93:                                               ; preds = %92, %83, %80
  %94 = load ptr, ptr %13, align 8, !tbaa !3
  store ptr %94, ptr %5, align 8
  store i32 1, ptr %15, align 4
  br label %106

95:                                               ; preds = %91, %68, %60, %43
  %96 = load ptr, ptr %12, align 8, !tbaa !54
  %97 = icmp ne ptr %96, null
  br i1 %97, label %98, label %100

98:                                               ; preds = %95
  %99 = load ptr, ptr %12, align 8, !tbaa !54
  call void @HMAC_CTX_free(ptr noundef %99)
  br label %100

100:                                              ; preds = %98, %95
  %101 = load ptr, ptr %13, align 8, !tbaa !3
  %102 = icmp ne ptr %101, null
  br i1 %102, label %103, label %105

103:                                              ; preds = %100
  %104 = load ptr, ptr %13, align 8, !tbaa !3
  call void @PyObject_Free(ptr noundef %104)
  br label %105

105:                                              ; preds = %103, %100
  store ptr null, ptr %5, align 8
  store i32 1, ptr %15, align 4
  br label %106

106:                                              ; preds = %105, %93, %38, %30, %25
  call void @llvm.lifetime.end.p0(i64 4, ptr %14) #9
  call void @llvm.lifetime.end.p0(i64 8, ptr %13) #9
  call void @llvm.lifetime.end.p0(i64 8, ptr %12) #9
  call void @llvm.lifetime.end.p0(i64 8, ptr %11) #9
  call void @llvm.lifetime.end.p0(i64 8, ptr %10) #9
  %107 = load ptr, ptr %5, align 8
  ret ptr %107
}

; Function Attrs: inlinehint nounwind uwtable
define internal i64 @PyTuple_GET_SIZE(ptr noundef %0) #4 {
  %2 = alloca ptr, align 8
  %3 = alloca ptr, align 8
  store ptr %0, ptr %2, align 8, !tbaa !14
  call void @llvm.lifetime.start.p0(i64 8, ptr %3) #9
  %4 = load ptr, ptr %2, align 8, !tbaa !14
  store ptr %4, ptr %3, align 8, !tbaa !3
  %5 = load ptr, ptr %3, align 8, !tbaa !3
  %6 = call i64 @Py_SIZE(ptr noundef %5)
  call void @llvm.lifetime.end.p0(i64 8, ptr %3) #9
  ret i64 %6
}

; Function Attrs: nounwind uwtable
define internal ptr @_hashlib_hmac_new(ptr noundef %0, ptr noundef %1, i64 noundef %2, ptr noundef %3) #0 {
  %5 = alloca ptr, align 8
  %6 = alloca ptr, align 8
  %7 = alloca i64, align 8
  %8 = alloca ptr, align 8
  %9 = alloca ptr, align 8
  %10 = alloca [3 x ptr], align 16
  %11 = alloca i64, align 8
  %12 = alloca %struct.Py_buffer, align 8
  %13 = alloca ptr, align 8
  %14 = alloca ptr, align 8
  store ptr %0, ptr %5, align 8, !tbaa !14
  store ptr %1, ptr %6, align 8, !tbaa !30
  store i64 %2, ptr %7, align 8, !tbaa !32
  store ptr %3, ptr %8, align 8, !tbaa !14
  call void @llvm.lifetime.start.p0(i64 8, ptr %9) #9
  store ptr null, ptr %9, align 8, !tbaa !14
  call void @llvm.lifetime.start.p0(i64 24, ptr %10) #9
  call void @llvm.lifetime.start.p0(i64 8, ptr %11) #9
  %15 = load i64, ptr %7, align 8, !tbaa !32
  %16 = load ptr, ptr %8, align 8, !tbaa !14
  %17 = icmp ne ptr %16, null
  br i1 %17, label %18, label %21

18:                                               ; preds = %4
  %19 = load ptr, ptr %8, align 8, !tbaa !14
  %20 = call i64 @PyTuple_GET_SIZE(ptr noundef %19)
  br label %22

21:                                               ; preds = %4
  br label %22

22:                                               ; preds = %21, %18
  %23 = phi i64 [ %20, %18 ], [ 0, %21 ]
  %24 = add i64 %15, %23
  %25 = sub i64 %24, 1
  store i64 %25, ptr %11, align 8, !tbaa !32
  call void @llvm.lifetime.start.p0(i64 80, ptr %12) #9
  call void @llvm.memset.p0.i64(ptr align 8 %12, i8 0, i64 80, i1 false)
  call void @llvm.lifetime.start.p0(i64 8, ptr %13) #9
  store ptr null, ptr %13, align 8, !tbaa !14
  call void @llvm.lifetime.start.p0(i64 8, ptr %14) #9
  store ptr null, ptr %14, align 8, !tbaa !14
  %26 = load ptr, ptr %8, align 8, !tbaa !14
  %27 = icmp eq ptr %26, null
  br i1 %27, label %28, label %39

28:                                               ; preds = %22
  %29 = load i64, ptr %7, align 8, !tbaa !32
  %30 = icmp sle i64 1, %29
  br i1 %30, label %31, label %39

31:                                               ; preds = %28
  %32 = load i64, ptr %7, align 8, !tbaa !32
  %33 = icmp sle i64 %32, 3
  br i1 %33, label %34, label %39

34:                                               ; preds = %31
  %35 = load ptr, ptr %6, align 8, !tbaa !30
  %36 = icmp ne ptr %35, null
  br i1 %36, label %37, label %39

37:                                               ; preds = %34
  %38 = load ptr, ptr %6, align 8, !tbaa !30
  br label %45

39:                                               ; preds = %34, %31, %28, %22
  %40 = load ptr, ptr %6, align 8, !tbaa !30
  %41 = load i64, ptr %7, align 8, !tbaa !32
  %42 = load ptr, ptr %8, align 8, !tbaa !14
  %43 = getelementptr inbounds [3 x ptr], ptr %10, i64 0, i64 0
  %44 = call ptr @_PyArg_UnpackKeywords(ptr noundef %40, i64 noundef %41, ptr noundef null, ptr noundef %42, ptr noundef @_hashlib_hmac_new._parser, i32 noundef 1, i32 noundef 3, i32 noundef 0, i32 noundef 0, ptr noundef %43)
  br label %45

45:                                               ; preds = %39, %37
  %46 = phi ptr [ %38, %37 ], [ %44, %39 ]
  store ptr %46, ptr %6, align 8, !tbaa !30
  %47 = load ptr, ptr %6, align 8, !tbaa !30
  %48 = icmp ne ptr %47, null
  br i1 %48, label %50, label %49

49:                                               ; preds = %45
  br label %84

50:                                               ; preds = %45
  %51 = load ptr, ptr %6, align 8, !tbaa !30
  %52 = getelementptr ptr, ptr %51, i64 0
  %53 = load ptr, ptr %52, align 8, !tbaa !14
  %54 = call i32 @PyObject_GetBuffer(ptr noundef %53, ptr noundef %12, i32 noundef 0)
  %55 = icmp ne i32 %54, 0
  br i1 %55, label %56, label %57

56:                                               ; preds = %50
  br label %84

57:                                               ; preds = %50
  %58 = load i64, ptr %11, align 8, !tbaa !32
  %59 = icmp ne i64 %58, 0
  br i1 %59, label %61, label %60

60:                                               ; preds = %57
  br label %79

61:                                               ; preds = %57
  %62 = load ptr, ptr %6, align 8, !tbaa !30
  %63 = getelementptr ptr, ptr %62, i64 1
  %64 = load ptr, ptr %63, align 8, !tbaa !14
  %65 = icmp ne ptr %64, null
  br i1 %65, label %66, label %75

66:                                               ; preds = %61
  %67 = load ptr, ptr %6, align 8, !tbaa !30
  %68 = getelementptr ptr, ptr %67, i64 1
  %69 = load ptr, ptr %68, align 8, !tbaa !14
  store ptr %69, ptr %13, align 8, !tbaa !14
  %70 = load i64, ptr %11, align 8, !tbaa !32
  %71 = add i64 %70, -1
  store i64 %71, ptr %11, align 8, !tbaa !32
  %72 = icmp ne i64 %71, 0
  br i1 %72, label %74, label %73

73:                                               ; preds = %66
  br label %79

74:                                               ; preds = %66
  br label %75

75:                                               ; preds = %74, %61
  %76 = load ptr, ptr %6, align 8, !tbaa !30
  %77 = getelementptr ptr, ptr %76, i64 2
  %78 = load ptr, ptr %77, align 8, !tbaa !14
  store ptr %78, ptr %14, align 8, !tbaa !14
  br label %79

79:                                               ; preds = %75, %73, %60
  %80 = load ptr, ptr %5, align 8, !tbaa !14
  %81 = load ptr, ptr %13, align 8, !tbaa !14
  %82 = load ptr, ptr %14, align 8, !tbaa !14
  %83 = call ptr @_hashlib_hmac_new_impl(ptr noundef %80, ptr noundef %12, ptr noundef %81, ptr noundef %82)
  store ptr %83, ptr %9, align 8, !tbaa !14
  br label %84

84:                                               ; preds = %79, %56, %49
  %85 = getelementptr inbounds nuw %struct.Py_buffer, ptr %12, i32 0, i32 1
  %86 = load ptr, ptr %85, align 8, !tbaa !67
  %87 = icmp ne ptr %86, null
  br i1 %87, label %88, label %89

88:                                               ; preds = %84
  call void @PyBuffer_Release(ptr noundef %12)
  br label %89

89:                                               ; preds = %88, %84
  %90 = load ptr, ptr %9, align 8, !tbaa !14
  call void @llvm.lifetime.end.p0(i64 8, ptr %14) #9
  call void @llvm.lifetime.end.p0(i64 8, ptr %13) #9
  call void @llvm.lifetime.end.p0(i64 80, ptr %12) #9
  call void @llvm.lifetime.end.p0(i64 8, ptr %11) #9
  call void @llvm.lifetime.end.p0(i64 24, ptr %10) #9
  call void @llvm.lifetime.end.p0(i64 8, ptr %9) #9
  ret ptr %90
}