; Function Attrs: nounwind uwtable
define internal ptr @_hashlib_hmac_new(ptr noundef %0, ptr noundef %1, i64 noundef %2, ptr noundef %3) #0 {
  %5 = alloca [3 x ptr], align 16
  %6 = alloca %struct.Py_buffer, align 8
  call void @llvm.lifetime.start.p0(i64 24, ptr nonnull %5) #9
  %.not = icmp eq ptr %3, null
  br i1 %.not, label %9, label %7

7:                                                ; preds = %4
  %8 = getelementptr i8, ptr %3, i64 16
  %.val = load i64, ptr %8, align 8, !tbaa !51
  br label %9

9:                                                ; preds = %4, %7
  %10 = phi i64 [ %.val, %7 ], [ 0, %4 ]
  %11 = add i64 %10, %2
  call void @llvm.lifetime.start.p0(i64 80, ptr nonnull %6) #9
  call void @llvm.memset.p0.i64(ptr noundef nonnull align 8 dereferenceable(80) %6, i8 0, i64 80, i1 false)
  %12 = add i64 %2, -1
  %13 = icmp ult i64 %12, 3
  %14 = icmp ne ptr %1, null
  %15 = and i1 %14, %13
  %or.cond5 = and i1 %.not, %15
  br i1 %or.cond5, label %.thread, label %16

16:                                               ; preds = %9
  %17 = call ptr @_PyArg_UnpackKeywords(ptr noundef %1, i64 noundef %2, ptr noundef null, ptr noundef %3, ptr noundef nonnull @_hashlib_hmac_new._parser, i32 noundef 1, i32 noundef 3, i32 noundef 0, i32 noundef 0, ptr noundef nonnull %5) #9
  %.not33 = icmp eq ptr %17, null
  br i1 %.not33, label %_hashlib_hmac_new_impl.exit, label %.thread

.thread:                                          ; preds = %9, %16
  %18 = phi ptr [ %17, %16 ], [ %1, %9 ]
  %19 = load ptr, ptr %18, align 8, !tbaa !23
  %20 = call i32 @PyObject_GetBuffer(ptr noundef %19, ptr noundef nonnull %6, i32 noundef 0) #9
  %.not34 = icmp eq i32 %20, 0
  br i1 %.not34, label %21, label %_hashlib_hmac_new_impl.exit

21:                                               ; preds = %.thread
  %.not35 = icmp eq i64 %11, 1
  br i1 %.not35, label %28, label %22

22:                                               ; preds = %21
  %23 = getelementptr i8, ptr %18, i64 8
  %24 = load ptr, ptr %23, align 8, !tbaa !23
  %.not36 = icmp ne ptr %24, null
  %.not37 = icmp eq i64 %11, 2
  %or.cond = select i1 %.not36, i1 %.not37, i1 false
  br i1 %or.cond, label %28, label %25

25:                                               ; preds = %22
  %26 = getelementptr i8, ptr %18, i64 16
  %27 = load ptr, ptr %26, align 8, !tbaa !23
  br label %28

28:                                               ; preds = %22, %21, %25
  %.026 = phi ptr [ %24, %25 ], [ null, %21 ], [ %24, %22 ]
  %.0 = phi ptr [ %27, %25 ], [ null, %21 ], [ null, %22 ]
  %29 = call ptr @PyModule_GetState(ptr noundef %0) #9
  %30 = getelementptr inbounds nuw i8, ptr %29, i64 8
  %31 = load ptr, ptr %30, align 8, !tbaa !45
  %32 = getelementptr inbounds nuw i8, ptr %6, i64 16
  %33 = load i64, ptr %32, align 8, !tbaa !40
  %34 = icmp sgt i64 %33, 2147483647
  br i1 %34, label %35, label %37

35:                                               ; preds = %28
  %36 = load ptr, ptr @PyExc_OverflowError, align 8, !tbaa !23
  call void @PyErr_SetString(ptr noundef %36, ptr noundef nonnull @.str.116) #9
  br label %_hashlib_hmac_new_impl.exit

37:                                               ; preds = %28
  %38 = icmp eq ptr %.0, null
  br i1 %38, label %39, label %41

39:                                               ; preds = %37
  %40 = load ptr, ptr @PyExc_TypeError, align 8, !tbaa !23
  call void @PyErr_SetString(ptr noundef %40, ptr noundef nonnull @.str.120) #9
  br label %_hashlib_hmac_new_impl.exit

41:                                               ; preds = %37
  %42 = call fastcc ptr @py_digest_by_digestmod(ptr noundef %0, ptr noundef nonnull %.0)
  %43 = icmp eq ptr %42, null
  br i1 %43, label %_hashlib_hmac_new_impl.exit, label %44

44:                                               ; preds = %41
  %45 = call ptr @HMAC_CTX_new() #9
  %46 = icmp eq ptr %45, null
  br i1 %46, label %.thread41.i, label %47

47:                                               ; preds = %44
  %48 = load ptr, ptr %6, align 8, !tbaa !39
  %49 = load i64, ptr %32, align 8, !tbaa !40
  %50 = trunc i64 %49 to i32
  %51 = call i32 @HMAC_Init_ex(ptr noundef nonnull %45, ptr noundef %48, i32 noundef %50, ptr noundef nonnull %42, ptr noundef null) #9
  call void @EVP_MD_free(ptr noundef nonnull %42) #9
  %52 = icmp eq i32 %51, 0
  br i1 %52, label %53, label %55

53:                                               ; preds = %47
  %54 = load ptr, ptr @PyExc_ValueError, align 8, !tbaa !23
  call void (ptr, ptr, ...) @_setException(ptr noundef %54, ptr noundef null)
  br label %.thread45.i

55:                                               ; preds = %47
  %56 = call ptr @_PyObject_New(ptr noundef %31) #9
  %57 = icmp eq ptr %56, null
  br i1 %57, label %.thread45.i, label %58

58:                                               ; preds = %55
  %59 = getelementptr inbounds nuw i8, ptr %56, i64 16
  store ptr %45, ptr %59, align 8, !tbaa !3
  %60 = getelementptr inbounds nuw i8, ptr %56, i64 25
  store i8 0, ptr %60, align 1, !tbaa !21
  %61 = getelementptr inbounds nuw i8, ptr %56, i64 24
  store i8 0, ptr %61, align 8, !tbaa !25
  %62 = icmp ne ptr %.026, null
  %63 = icmp ne ptr %.026, @_Py_NoneStruct
  %or.cond.i = and i1 %62, %63
  br i1 %or.cond.i, label %64, label %_hashlib_hmac_new_impl.exit

64:                                               ; preds = %58
  %65 = call fastcc i32 @_hmac_update(ptr noundef nonnull %56, ptr noundef nonnull %.026)
  %.not.i = icmp eq i32 %65, 0
  br i1 %.not.i, label %67, label %_hashlib_hmac_new_impl.exit

.thread41.i:                                      ; preds = %44
  %66 = load ptr, ptr @PyExc_ValueError, align 8, !tbaa !23
  call void (ptr, ptr, ...) @_setException(ptr noundef %66, ptr noundef null)
  br label %_hashlib_hmac_new_impl.exit

.thread45.i:                                      ; preds = %55, %53
  call void @HMAC_CTX_free(ptr noundef nonnull %45) #9
  br label %_hashlib_hmac_new_impl.exit

67:                                               ; preds = %64
  call void @HMAC_CTX_free(ptr noundef nonnull %45) #9
  call void @PyObject_Free(ptr noundef nonnull %56) #9
  br label %_hashlib_hmac_new_impl.exit

_hashlib_hmac_new_impl.exit:                      ; preds = %67, %.thread45.i, %.thread41.i, %64, %58, %41, %39, %35, %.thread, %16
  %.027 = phi ptr [ null, %.thread ], [ null, %16 ], [ null, %35 ], [ null, %39 ], [ null, %41 ], [ %56, %64 ], [ %56, %58 ], [ null, %67 ], [ null, %.thread41.i ], [ null, %.thread45.i ]
  %68 = getelementptr inbounds nuw i8, ptr %6, i64 8
  %69 = load ptr, ptr %68, align 8, !tbaa !54
  %.not38 = icmp eq ptr %69, null
  br i1 %.not38, label %71, label %70

70:                                               ; preds = %_hashlib_hmac_new_impl.exit
  call void @PyBuffer_Release(ptr noundef nonnull %6) #9
  br label %71

71:                                               ; preds = %70, %_hashlib_hmac_new_impl.exit
  call void @llvm.lifetime.end.p0(i64 80, ptr nonnull %6) #9
  call void @llvm.lifetime.end.p0(i64 24, ptr nonnull %5) #9
  ret ptr %.027
}